target datalayout = "e-m:e-p270:32:32-p271:32:32-p272:64:64-i64:64-i128:128-f80:128-n8:16:32:64-S128"
target triple = "x86_64-pc-linux-gnu"

@.str.11 = private unnamed_addr constant [1 x i8] zeroinitializer, align 1
@.str.13 = private unnamed_addr constant [2 x i8] c",\00", align 1
@.str.14 = private unnamed_addr constant [5 x i8] c"None\00", align 1
@.str.28 = private unnamed_addr constant [12 x i8] c"SchedNotSet\00", align 1
@.str.29 = private unnamed_addr constant [12 x i8] c"SchedSubmit\00", align 1
@.str.30 = private unnamed_addr constant [10 x i8] c"SchedMain\00", align 1
@.str.31 = private unnamed_addr constant [14 x i8] c"SchedBackfill\00", align 1
@.str.32 = private unnamed_addr constant [16 x i8] c"%sStartReceived\00", align 1

; Function Attrs: nounwind uwtable
define dso_local ptr @slurmdb_job_flags_str(i32 noundef %0) #0 {
  %2 = alloca ptr, align 8
  %3 = alloca i32, align 4
  %4 = alloca ptr, align 8
  %5 = alloca i32, align 4
  store i32 %0, ptr %3, align 4
  call void @llvm.lifetime.start.p0(i64 8, ptr %4) #10
  store ptr null, ptr %4, align 8
  %6 = load i32, ptr %3, align 4
  %7 = icmp eq i32 %6, 0
  br i1 %7, label %8, label %10

8:                                                ; preds = %1
  %9 = call ptr @xstrdup(ptr noundef @.str.14)
  store ptr %9, ptr %2, align 8
  store i32 1, ptr %5, align 4
  br label %48

10:                                               ; preds = %1
  %11 = load i32, ptr %3, align 4
  %12 = zext i32 %11 to i64
  %13 = and i64 %12, 1
  %14 = icmp ne i64 %13, 0
  br i1 %14, label %15, label %16

15:                                               ; preds = %10
  call void @_xstrcat(ptr noundef %4, ptr noundef @.str.28)
  br label %37

16:                                               ; preds = %10
  %17 = load i32, ptr %3, align 4
  %18 = zext i32 %17 to i64
  %19 = and i64 %18, 2
  %20 = icmp ne i64 %19, 0
  br i1 %20, label %21, label %22

21:                                               ; preds = %16
  call void @_xstrcat(ptr noundef %4, ptr noundef @.str.29)
  br label %36

22:                                               ; preds = %16
  %23 = load i32, ptr %3, align 4
  %24 = zext i32 %23 to i64
  %25 = and i64 %24, 4
  %26 = icmp ne i64 %25, 0
  br i1 %26, label %27, label %28

27:                                               ; preds = %22
  call void @_xstrcat(ptr noundef %4, ptr noundef @.str.30)
  br label %35

28:                                               ; preds = %22
  %29 = load i32, ptr %3, align 4
  %30 = zext i32 %29 to i64
  %31 = and i64 %30, 8
  %32 = icmp ne i64 %31, 0
  br i1 %32, label %33, label %34

33:                                               ; preds = %28
  call void @_xstrcat(ptr noundef %4, ptr noundef @.str.31)
  br label %34

34:                                               ; preds = %33, %28
  br label %35

35:                                               ; preds = %34, %27
  br label %36

36:                                               ; preds = %35, %21
  br label %37

37:                                               ; preds = %36, %15
  %38 = load i32, ptr %3, align 4
  %39 = zext i32 %38 to i64
  %40 = and i64 %39, 16
  %41 = icmp ne i64 %40, 0
  br i1 %41, label %42, label %46

42:                                               ; preds = %37
  %43 = load ptr, ptr %4, align 8
  %44 = icmp ne ptr %43, null
  %45 = select i1 %44, ptr @.str.13, ptr @.str.11
  call void (ptr, ptr, ...) @_xstrfmtcat(ptr noundef %4, ptr noundef @.str.32, ptr noundef %45)
  br label %46

46:                                               ; preds = %42, %37
  %47 = load ptr, ptr %4, align 8
  store ptr %47, ptr %2, align 8
  store i32 1, ptr %5, align 4
  br label %48

48:                                               ; preds = %46, %8
  call void @llvm.lifetime.end.p0(i64 8, ptr %4) #10
  %49 = load ptr, ptr %2, align 8
  ret ptr %49
}