; Function Attrs: nounwind uwtable
define dso_local ptr @slurmdb_job_flags_str(i32 noundef %0) local_unnamed_addr #0 {
  %2 = alloca ptr, align 8
  call void @llvm.lifetime.start.p0(i64 8, ptr nonnull %2) #19
  store ptr null, ptr %2, align 8
  %3 = icmp eq i32 %0, 0
  br i1 %3, label %4, label %6

4:                                                ; preds = %1
  %5 = tail call ptr @xstrdup(ptr noundef nonnull @.str.14) #19
  br label %19

6:                                                ; preds = %1
  %7 = zext i32 %0 to i64
  %8 = and i64 %7, 1
  %.not = icmp eq i64 %8, 0
  br i1 %.not, label %9, label %.sink.split

9:                                                ; preds = %6
  %10 = and i64 %7, 2
  %.not7 = icmp eq i64 %10, 0
  br i1 %.not7, label %11, label %.sink.split

11:                                               ; preds = %9
  %12 = and i64 %7, 4
  %.not8 = icmp eq i64 %12, 0
  br i1 %.not8, label %13, label %.sink.split

13:                                               ; preds = %11
  %14 = and i64 %7, 8
  %.not9 = icmp eq i64 %14, 0
  br i1 %.not9, label %15, label %.sink.split

.sink.split:                                      ; preds = %13, %11, %9, %6
  %.str.29.sink = phi ptr [ @.str.28, %6 ], [ @.str.29, %9 ], [ @.str.30, %11 ], [ @.str.31, %13 ]
  call void @_xstrcat(ptr noundef nonnull %2, ptr noundef nonnull %.str.29.sink) #19
  br label %15

15:                                               ; preds = %.sink.split, %13
  %16 = and i64 %7, 16
  %.not10 = icmp eq i64 %16, 0
  %.pre12 = load ptr, ptr %2, align 8
  br i1 %.not10, label %19, label %17

17:                                               ; preds = %15
  %.not11 = icmp eq ptr %.pre12, null
  %18 = select i1 %.not11, ptr @.str.11, ptr @.str.13
  call void (ptr, ptr, ...) @_xstrfmtcat(ptr noundef nonnull %2, ptr noundef nonnull @.str.32, ptr noundef nonnull %18) #19
  %.pre = load ptr, ptr %2, align 8
  br label %19

19:                                               ; preds = %15, %17, %4
  %.0 = phi ptr [ %5, %4 ], [ %.pre, %17 ], [ %.pre12, %15 ]
  call void @llvm.lifetime.end.p0(i64 8, ptr nonnull %2) #19
  ret ptr %.0
}